target datalayout = "e-m:e-p270:32:32-p271:32:32-p272:64:64-i64:64-i128:128-f80:128-n8:16:32:64-S128"
target triple = "x86_64-pc-linux-gnu"

@.str.102 = private unnamed_addr constant [2 x i8] c"w\00", align 1
@stdin = external global ptr, align 8

; Function Attrs: nounwind uwtable
define dso_local ptr @read_stream() #0 {
  %1 = alloca ptr, align 8
  %2 = alloca ptr, align 8
  %3 = alloca [512 x i8], align 16
  %4 = alloca i64, align 8
  %5 = alloca i64, align 8
  %6 = alloca ptr, align 8
  %7 = alloca i64, align 8
  %8 = call ptr @cli_gentemp(ptr noundef null)
  store ptr %8, ptr %2, align 8
  %9 = load ptr, ptr %2, align 8
  %10 = icmp ne ptr %9, null
  br i1 %10, label %12, label %11

11:                                               ; preds = %0
  store ptr null, ptr %1, align 8
  br label %64

12:                                               ; preds = %0
  %13 = load ptr, ptr %2, align 8
  %14 = call noalias ptr @fopen(ptr noundef %13, ptr noundef @.str.102)
  store ptr %14, ptr %6, align 8
  %15 = load ptr, ptr %6, align 8
  %16 = icmp ne ptr %15, null
  br i1 %16, label %19, label %17

17:                                               ; preds = %12
  %18 = load ptr, ptr %2, align 8
  call void @free(ptr noundef %18) #12
  store ptr null, ptr %1, align 8
  br label %64

19:                                               ; preds = %12
  br label %20

20:                                               ; preds = %59, %19
  %21 = load ptr, ptr @stdin, align 8
  %22 = call i32 @feof(ptr noundef %21) #12
  %23 = icmp ne i32 %22, 0
  %24 = xor i1 %23, true
  br i1 %24, label %25, label %60

25:                                               ; preds = %20
  store i64 0, ptr %5, align 8
  %26 = getelementptr inbounds [512 x i8], ptr %3, i64 0, i64 0
  %27 = load ptr, ptr @stdin, align 8
  %28 = call i64 @fread(ptr noundef %26, i64 noundef 1, i64 noundef 512, ptr noundef %27)
  store i64 %28, ptr %4, align 8
  %29 = load i64, ptr %4, align 8
  %30 = icmp eq i64 %29, 0
  br i1 %30, label %31, label %37

31:                                               ; preds = %25
  %32 = load ptr, ptr %6, align 8
  %33 = call i32 @fclose(ptr noundef %32)
  %34 = load ptr, ptr %2, align 8
  %35 = call i32 @remove(ptr noundef %34) #12
  %36 = load ptr, ptr %2, align 8
  call void @free(ptr noundef %36) #12
  store ptr null, ptr %1, align 8
  br label %64

37:                                               ; preds = %25
  br label %38

38:                                               ; preds = %55, %37
  %39 = load i64, ptr %5, align 8
  %40 = load i64, ptr %4, align 8
  %41 = icmp ult i64 %39, %40
  br i1 %41, label %42, label %59

42:                                               ; preds = %38
  %43 = getelementptr inbounds [512 x i8], ptr %3, i64 0, i64 0
  %44 = load i64, ptr %4, align 8
  %45 = load ptr, ptr %6, align 8
  %46 = call i64 @fwrite(ptr noundef %43, i64 noundef 1, i64 noundef %44, ptr noundef %45)
  store i64 %46, ptr %7, align 8
  %47 = load i64, ptr %7, align 8
  %48 = icmp eq i64 %47, 0
  br i1 %48, label %49, label %55

49:                                               ; preds = %42
  %50 = load ptr, ptr %6, align 8
  %51 = call i32 @fclose(ptr noundef %50)
  %52 = load ptr, ptr %2, align 8
  %53 = call i32 @remove(ptr noundef %52) #12
  %54 = load ptr, ptr %2, align 8
  call void @free(ptr noundef %54) #12
  store ptr null, ptr %1, align 8
  br label %64

55:                                               ; preds = %42
  %56 = load i64, ptr %7, align 8
  %57 = load i64, ptr %5, align 8
  %58 = add i64 %57, %56
  store i64 %58, ptr %5, align 8
  br label %38

59:                                               ; preds = %38
  br label %20

60:                                               ; preds = %20
  %61 = load ptr, ptr %6, align 8
  %62 = call i32 @fclose(ptr noundef %61)
  %63 = load ptr, ptr %2, align 8
  store ptr %63, ptr %1, align 8
  br label %64

64:                                               ; preds = %60, %49, %31, %17, %11
  %65 = load ptr, ptr %1, align 8
  ret ptr %65
}