; Function Attrs: nounwind uwtable
define dso_local ptr @read_stream() local_unnamed_addr #4 {
  %1 = alloca [512 x i8], align 16
  %2 = tail call ptr @cli_gentemp(ptr noundef null) #12
  %.not = icmp eq ptr %2, null
  br i1 %.not, label %25, label %3

3:                                                ; preds = %0
  %4 = tail call noalias ptr @fopen(ptr noundef nonnull %2, ptr noundef nonnull @.str.102)
  %.not24 = icmp eq ptr %4, null
  br i1 %.not24, label %7, label %.preheader26

.preheader26:                                     ; preds = %3
  %5 = load ptr, ptr @stdin, align 8
  %6 = tail call i32 @feof(ptr noundef %5) #12
  %.not2528 = icmp eq i32 %6, 0
  br i1 %.not2528, label %.lr.ph, label %._crit_edge

7:                                                ; preds = %3
  tail call void @free(ptr noundef nonnull %2) #12
  br label %25

.loopexit:                                        ; preds = %16
  %8 = load ptr, ptr @stdin, align 8
  %9 = tail call i32 @feof(ptr noundef %8) #12
  %.not25 = icmp eq i32 %9, 0
  br i1 %.not25, label %.lr.ph, label %._crit_edge

.lr.ph:                                           ; preds = %.preheader26, %.loopexit
  %10 = load ptr, ptr @stdin, align 8
  %11 = call i64 @fread(ptr noundef nonnull %1, i64 noundef 1, i64 noundef 512, ptr noundef %10)
  %12 = icmp eq i64 %11, 0
  br i1 %12, label %13, label %.preheader

13:                                               ; preds = %.lr.ph
  %14 = tail call i32 @fclose(ptr noundef nonnull %4)
  %15 = tail call i32 @remove(ptr noundef nonnull %2) #12
  tail call void @free(ptr noundef %2) #12
  br label %25

16:                                               ; preds = %.preheader
  %17 = add i64 %19, %.02027
  %18 = icmp ult i64 %17, %11
  br i1 %18, label %.preheader, label %.loopexit

.preheader:                                       ; preds = %.lr.ph, %16
  %.02027 = phi i64 [ %17, %16 ], [ 0, %.lr.ph ]
  %19 = call i64 @fwrite(ptr noundef nonnull %1, i64 noundef 1, i64 noundef %11, ptr noundef nonnull %4)
  %20 = icmp eq i64 %19, 0
  br i1 %20, label %21, label %16

21:                                               ; preds = %.preheader
  %22 = tail call i32 @fclose(ptr noundef nonnull %4)
  %23 = tail call i32 @remove(ptr noundef nonnull %2) #12
  tail call void @free(ptr noundef %2) #12
  br label %25

._crit_edge:                                      ; preds = %.loopexit, %.preheader26
  %24 = tail call i32 @fclose(ptr noundef nonnull %4)
  br label %25

25:                                               ; preds = %0, %._crit_edge, %21, %13, %7
  %.0 = phi ptr [ null, %13 ], [ null, %21 ], [ %2, %._crit_edge ], [ null, %7 ], [ null, %0 ]
  ret ptr %.0
}